target datalayout = "e-m:e-p270:32:32-p271:32:32-p272:64:64-i64:64-i128:128-f80:128-n8:16:32:64-S128"
target triple = "x86_64-pc-linux-gnu"

%"class.glslang::TParseVersions" = type { ptr, i8, i32, ptr, i32, i32, %"struct.glslang::SpvVersion", ptr, %"class.glslang::TMap", %"class.glslang::TMap.1", %"class.glslang::TVector", i32, i32, ptr }
%"struct.glslang::SpvVersion" = type <{ i32, i32, i32, i32, i8, [3 x i8] }>
%"class.glslang::TMap" = type { %"class.std::map" }
%"class.std::map" = type { %"class.std::_Rb_tree" }
%"class.std::_Rb_tree" = type { %"struct.std::_Rb_tree<std::__cxx11::basic_string<char, std::char_traits<char>, glslang::pool_allocator<char>>, std::pair<const std::__cxx11::basic_string<char, std::char_traits<char>, glslang::pool_allocator<char>>, glslang::TExtensionBehavior>, std::_Select1st<std::pair<const std::__cxx11::basic_string<char, std::char_traits<char>, glslang::pool_allocator<char>>, glslang::TExtensionBehavior>>, std::less<std::__cxx11::basic_string<char, std::char_traits<char>, glslang::pool_allocator<char>>>, glslang::pool_allocator<std::pair<const std::__cxx11::basic_string<char, std::char_traits<char>, glslang::pool_allocator<char>>, glslang::TExtensionBehavior>>>::_Rb_tree_impl" }
%"struct.std::_Rb_tree<std::__cxx11::basic_string<char, std::char_traits<char>, glslang::pool_allocator<char>>, std::pair<const std::__cxx11::basic_string<char, std::char_traits<char>, glslang::pool_allocator<char>>, glslang::TExtensionBehavior>, std::_Select1st<std::pair<const std::__cxx11::basic_string<char, std::char_traits<char>, glslang::pool_allocator<char>>, glslang::TExtensionBehavior>>, std::less<std::__cxx11::basic_string<char, std::char_traits<char>, glslang::pool_allocator<char>>>, glslang::pool_allocator<std::pair<const std::__cxx11::basic_string<char, std::char_traits<char>, glslang::pool_allocator<char>>, glslang::TExtensionBehavior>>>::_Rb_tree_impl" = type { %"class.glslang::pool_allocator.0", %"struct.std::_Rb_tree_key_compare", %"struct.std::_Rb_tree_header" }
%"class.glslang::pool_allocator.0" = type { ptr }
%"struct.std::_Rb_tree_key_compare" = type { %"struct.std::less" }
%"struct.std::less" = type { i8 }
%"struct.std::_Rb_tree_header" = type { %"struct.std::_Rb_tree_node_base", i64 }
%"struct.std::_Rb_tree_node_base" = type { i32, ptr, ptr, ptr }
%"class.glslang::TMap.1" = type { %"class.std::map.2" }
%"class.std::map.2" = type { %"class.std::_Rb_tree.3" }
%"class.std::_Rb_tree.3" = type { %"struct.std::_Rb_tree<std::__cxx11::basic_string<char, std::char_traits<char>, glslang::pool_allocator<char>>, std::pair<const std::__cxx11::basic_string<char, std::char_traits<char>, glslang::pool_allocator<char>>, unsigned int>, std::_Select1st<std::pair<const std::__cxx11::basic_string<char, std::char_traits<char>, glslang::pool_allocator<char>>, unsigned int>>, std::less<std::__cxx11::basic_string<char, std::char_traits<char>, glslang::pool_allocator<char>>>, glslang::pool_allocator<std::pair<const std::__cxx11::basic_string<char, std::char_traits<char>, glslang::pool_allocator<char>>, unsigned int>>>::_Rb_tree_impl" }
%"struct.std::_Rb_tree<std::__cxx11::basic_string<char, std::char_traits<char>, glslang::pool_allocator<char>>, std::pair<const std::__cxx11::basic_string<char, std::char_traits<char>, glslang::pool_allocator<char>>, unsigned int>, std::_Select1st<std::pair<const std::__cxx11::basic_string<char, std::char_traits<char>, glslang::pool_allocator<char>>, unsigned int>>, std::less<std::__cxx11::basic_string<char, std::char_traits<char>, glslang::pool_allocator<char>>>, glslang::pool_allocator<std::pair<const std::__cxx11::basic_string<char, std::char_traits<char>, glslang::pool_allocator<char>>, unsigned int>>>::_Rb_tree_impl" = type { %"class.glslang::pool_allocator.4", %"struct.std::_Rb_tree_key_compare", %"struct.std::_Rb_tree_header" }
%"class.glslang::pool_allocator.4" = type { ptr }
%"class.glslang::TVector" = type { %"class.std::vector" }
%"class.std::vector" = type { %"struct.std::_Vector_base" }
%"struct.std::_Vector_base" = type { %"struct.std::_Vector_base<std::__cxx11::basic_string<char, std::char_traits<char>, glslang::pool_allocator<char>>, glslang::pool_allocator<std::__cxx11::basic_string<char, std::char_traits<char>, glslang::pool_allocator<char>>>>::_Vector_impl" }
%"struct.std::_Vector_base<std::__cxx11::basic_string<char, std::char_traits<char>, glslang::pool_allocator<char>>, glslang::pool_allocator<std::__cxx11::basic_string<char, std::char_traits<char>, glslang::pool_allocator<char>>>>::_Vector_impl" = type { %"class.glslang::pool_allocator.5", %"struct.std::_Vector_base<std::__cxx11::basic_string<char, std::char_traits<char>, glslang::pool_allocator<char>>, glslang::pool_allocator<std::__cxx11::basic_string<char, std::char_traits<char>, glslang::pool_allocator<char>>>>::_Vector_impl_data" }
%"class.glslang::pool_allocator.5" = type { ptr }
%"struct.std::_Vector_base<std::__cxx11::basic_string<char, std::char_traits<char>, glslang::pool_allocator<char>>, glslang::pool_allocator<std::__cxx11::basic_string<char, std::char_traits<char>, glslang::pool_allocator<char>>>>::_Vector_impl_data" = type { ptr, ptr, ptr }

@.str.5 = private unnamed_addr constant [1 x i8] zeroinitializer, align 1
@.str.210 = private unnamed_addr constant [12 x i8] c"constructor\00", align 1
@.str.302 = private unnamed_addr constant [25 x i8] c"unsupported construction\00", align 1
@.str.303 = private unnamed_addr constant [14 x i8] c"can't convert\00", align 1

; Function Attrs: mustprogress nounwind uwtable
define noundef ptr @_ZN7glslang16HlslParseContext16constructBuiltInERKNS_5TTypeENS_9TOperatorEPNS_12TIntermTypedERKNS_10TSourceLocEb(ptr noundef nonnull align 8 dereferenceable(2489) %0, ptr noundef nonnull align 8 dereferenceable(152) %1, i32 noundef %2, ptr noundef %3, ptr noundef nonnull align 8 dereferenceable(24) %4, i1 noundef zeroext %5) #0 align 2 {
  %7 = alloca ptr, align 8
  %8 = alloca ptr, align 8
  %9 = alloca ptr, align 8
  %10 = alloca i32, align 4
  %11 = alloca ptr, align 8
  %12 = alloca ptr, align 8
  %13 = alloca i8, align 1
  %14 = alloca ptr, align 8
  %15 = alloca i32, align 4
  store ptr %0, ptr %8, align 8
  store ptr %1, ptr %9, align 8
  store i32 %2, ptr %10, align 4
  store ptr %3, ptr %11, align 8
  store ptr %4, ptr %12, align 8
  %16 = zext i1 %5 to i8
  store i8 %16, ptr %13, align 1
  %17 = load ptr, ptr %8, align 8
  %18 = load i32, ptr %10, align 4
  switch i32 %18, label %27 [
    i32 565, label %19
    i32 566, label %19
    i32 567, label %19
    i32 568, label %19
    i32 569, label %19
    i32 570, label %19
    i32 571, label %19
    i32 572, label %19
    i32 573, label %19
    i32 574, label %19
    i32 575, label %19
    i32 576, label %19
    i32 564, label %19
    i32 486, label %20
    i32 487, label %20
    i32 488, label %20
    i32 489, label %20
    i32 490, label %20
    i32 491, label %20
    i32 492, label %20
    i32 493, label %20
    i32 494, label %20
    i32 495, label %20
    i32 496, label %20
    i32 497, label %20
    i32 484, label %20
    i32 498, label %21
    i32 499, label %21
    i32 500, label %21
    i32 528, label %21
    i32 529, label %21
    i32 530, label %21
    i32 531, label %21
    i32 532, label %21
    i32 533, label %21
    i32 534, label %21
    i32 535, label %21
    i32 536, label %21
    i32 485, label %21
    i32 510, label %22
    i32 511, label %22
    i32 512, label %22
    i32 479, label %22
    i32 516, label %23
    i32 517, label %23
    i32 518, label %23
    i32 537, label %23
    i32 538, label %23
    i32 539, label %23
    i32 540, label %23
    i32 541, label %23
    i32 542, label %23
    i32 543, label %23
    i32 544, label %23
    i32 545, label %23
    i32 475, label %23
    i32 513, label %24
    i32 514, label %24
    i32 515, label %24
    i32 480, label %24
    i32 519, label %25
    i32 520, label %25
    i32 521, label %25
    i32 546, label %25
    i32 547, label %25
    i32 548, label %25
    i32 549, label %25
    i32 550, label %25
    i32 551, label %25
    i32 552, label %25
    i32 553, label %25
    i32 554, label %25
    i32 476, label %25
    i32 501, label %26
    i32 502, label %26
    i32 503, label %26
    i32 555, label %26
    i32 556, label %26
    i32 557, label %26
    i32 558, label %26
    i32 559, label %26
    i32 560, label %26
    i32 561, label %26
    i32 562, label %26
    i32 563, label %26
    i32 483, label %26
  ]

19:                                               ; preds = %6, %6, %6, %6, %6, %6, %6, %6, %6, %6, %6, %6, %6
  store i32 564, ptr %15, align 4
  br label %32

20:                                               ; preds = %6, %6, %6, %6, %6, %6, %6, %6, %6, %6, %6, %6, %6
  store i32 484, ptr %15, align 4
  br label %32

21:                                               ; preds = %6, %6, %6, %6, %6, %6, %6, %6, %6, %6, %6, %6, %6
  store i32 485, ptr %15, align 4
  br label %32

22:                                               ; preds = %6, %6, %6, %6
  store i32 479, ptr %15, align 4
  br label %32

23:                                               ; preds = %6, %6, %6, %6, %6, %6, %6, %6, %6, %6, %6, %6, %6
  store i32 475, ptr %15, align 4
  br label %32

24:                                               ; preds = %6, %6, %6, %6
  store i32 480, ptr %15, align 4
  br label %32

25:                                               ; preds = %6, %6, %6, %6, %6, %6, %6, %6, %6, %6, %6, %6, %6
  store i32 476, ptr %15, align 4
  br label %32

26:                                               ; preds = %6, %6, %6, %6, %6, %6, %6, %6, %6, %6, %6, %6, %6
  store i32 483, ptr %15, align 4
  br label %32

27:                                               ; preds = %6
  %28 = load ptr, ptr %12, align 8
  %29 = load ptr, ptr %17, align 8
  %30 = getelementptr inbounds ptr, ptr %29, i64 43
  %31 = load ptr, ptr %30, align 8
  call void (ptr, ptr, ptr, ptr, ptr, ...) %31(ptr noundef nonnull align 8 dereferenceable(1280) %17, ptr noundef nonnull align 8 dereferenceable(24) %28, ptr noundef @.str.302, ptr noundef @.str.5, ptr noundef @.str.5)
  store ptr null, ptr %7, align 8
  br label %75

32:                                               ; preds = %26, %25, %24, %23, %22, %21, %20, %19
  %33 = getelementptr inbounds %"class.glslang::TParseVersions", ptr %17, i32 0, i32 7
  %34 = load ptr, ptr %33, align 8
  %35 = load i32, ptr %15, align 4
  %36 = load ptr, ptr %11, align 8
  %37 = load ptr, ptr %11, align 8
  %38 = load ptr, ptr %37, align 8
  %39 = getelementptr inbounds ptr, ptr %38, i64 0
  %40 = load ptr, ptr %39, align 8
  %41 = call noundef nonnull align 8 dereferenceable(24) ptr %40(ptr noundef nonnull align 8 dereferenceable(32) %37)
  %42 = call noundef ptr @_ZN7glslang13TIntermediate12addUnaryMathENS_9TOperatorEPNS_12TIntermTypedERKNS_10TSourceLocE(ptr noundef nonnull align 8 dereferenceable(2024) %34, i32 noundef %35, ptr noundef %36, ptr noundef nonnull align 8 dereferenceable(24) %41)
  store ptr %42, ptr %14, align 8
  %43 = load ptr, ptr %14, align 8
  %44 = icmp eq ptr %43, null
  br i1 %44, label %45, label %50

45:                                               ; preds = %32
  %46 = load ptr, ptr %12, align 8
  %47 = load ptr, ptr %17, align 8
  %48 = getelementptr inbounds ptr, ptr %47, i64 43
  %49 = load ptr, ptr %48, align 8
  call void (ptr, ptr, ptr, ptr, ptr, ...) %49(ptr noundef nonnull align 8 dereferenceable(1280) %17, ptr noundef nonnull align 8 dereferenceable(24) %46, ptr noundef @.str.303, ptr noundef @.str.210, ptr noundef @.str.5)
  store ptr null, ptr %7, align 8
  br label %75

50:                                               ; preds = %32
  %51 = load i8, ptr %13, align 1
  %52 = trunc i8 %51 to i1
  br i1 %52, label %65, label %53

53:                                               ; preds = %50
  %54 = load ptr, ptr %14, align 8
  %55 = load ptr, ptr %11, align 8
  %56 = icmp ne ptr %54, %55
  br i1 %56, label %57, label %67

57:                                               ; preds = %53
  %58 = load ptr, ptr %14, align 8
  %59 = load ptr, ptr %58, align 8
  %60 = getelementptr inbounds ptr, ptr %59, i64 30
  %61 = load ptr, ptr %60, align 8
  %62 = call noundef nonnull align 8 dereferenceable(152) ptr %61(ptr noundef nonnull align 8 dereferenceable(184) %58)
  %63 = load ptr, ptr %9, align 8
  %64 = call noundef zeroext i1 @_ZNK7glslang5TTypeeqERKS0_(ptr noundef nonnull align 8 dereferenceable(152) %62, ptr noundef nonnull align 8 dereferenceable(152) %63)
  br i1 %64, label %65, label %67

65:                                               ; preds = %57, %50
  %66 = load ptr, ptr %14, align 8
  store ptr %66, ptr %7, align 8
  br label %75

67:                                               ; preds = %57, %53
  %68 = getelementptr inbounds %"class.glslang::TParseVersions", ptr %17, i32 0, i32 7
  %69 = load ptr, ptr %68, align 8
  %70 = load ptr, ptr %14, align 8
  %71 = load i32, ptr %10, align 4
  %72 = load ptr, ptr %9, align 8
  %73 = load ptr, ptr %12, align 8
  %74 = call noundef ptr @_ZN7glslang13TIntermediate20setAggregateOperatorEP11TIntermNodeNS_9TOperatorERKNS_5TTypeERKNS_10TSourceLocE(ptr noundef nonnull align 8 dereferenceable(2024) %69, ptr noundef %70, i32 noundef %71, ptr noundef nonnull align 8 dereferenceable(152) %72, ptr noundef nonnull align 8 dereferenceable(24) %73)
  store ptr %74, ptr %7, align 8
  br label %75

75:                                               ; preds = %67, %65, %45, %27
  %76 = load ptr, ptr %7, align 8
  ret ptr %76
}