; Function Attrs: mustprogress nounwind uwtable
define noundef ptr @_ZN7glslang16HlslParseContext16constructBuiltInERKNS_5TTypeENS_9TOperatorEPNS_12TIntermTypedERKNS_10TSourceLocEb(ptr noundef nonnull align 8 dereferenceable(2489) %0, ptr noundef nonnull align 8 dereferenceable(152) %1, i32 noundef %2, ptr noundef %3, ptr noundef nonnull align 8 dereferenceable(24) %4, i1 noundef zeroext %5) local_unnamed_addr #0 align 2 {
  switch i32 %2, label %14 [
    i32 565, label %18
    i32 566, label %18
    i32 567, label %18
    i32 568, label %18
    i32 569, label %18
    i32 570, label %18
    i32 571, label %18
    i32 572, label %18
    i32 573, label %18
    i32 574, label %18
    i32 575, label %18
    i32 576, label %18
    i32 564, label %18
    i32 486, label %7
    i32 487, label %7
    i32 488, label %7
    i32 489, label %7
    i32 490, label %7
    i32 491, label %7
    i32 492, label %7
    i32 493, label %7
    i32 494, label %7
    i32 495, label %7
    i32 496, label %7
    i32 497, label %7
    i32 484, label %7
    i32 498, label %8
    i32 499, label %8
    i32 500, label %8
    i32 528, label %8
    i32 529, label %8
    i32 530, label %8
    i32 531, label %8
    i32 532, label %8
    i32 533, label %8
    i32 534, label %8
    i32 535, label %8
    i32 536, label %8
    i32 485, label %8
    i32 510, label %9
    i32 511, label %9
    i32 512, label %9
    i32 479, label %9
    i32 516, label %10
    i32 517, label %10
    i32 518, label %10
    i32 537, label %10
    i32 538, label %10
    i32 539, label %10
    i32 540, label %10
    i32 541, label %10
    i32 542, label %10
    i32 543, label %10
    i32 544, label %10
    i32 545, label %10
    i32 475, label %10
    i32 513, label %11
    i32 514, label %11
    i32 515, label %11
    i32 480, label %11
    i32 519, label %12
    i32 520, label %12
    i32 521, label %12
    i32 546, label %12
    i32 547, label %12
    i32 548, label %12
    i32 549, label %12
    i32 550, label %12
    i32 551, label %12
    i32 552, label %12
    i32 553, label %12
    i32 554, label %12
    i32 476, label %12
    i32 501, label %13
    i32 502, label %13
    i32 503, label %13
    i32 555, label %13
    i32 556, label %13
    i32 557, label %13
    i32 558, label %13
    i32 559, label %13
    i32 560, label %13
    i32 561, label %13
    i32 562, label %13
    i32 563, label %13
    i32 483, label %13
  ]

7:                                                ; preds = %6, %6, %6, %6, %6, %6, %6, %6, %6, %6, %6, %6, %6
  br label %18

8:                                                ; preds = %6, %6, %6, %6, %6, %6, %6, %6, %6, %6, %6, %6, %6
  br label %18

9:                                                ; preds = %6, %6, %6, %6
  br label %18

10:                                               ; preds = %6, %6, %6, %6, %6, %6, %6, %6, %6, %6, %6, %6, %6
  br label %18

11:                                               ; preds = %6, %6, %6, %6
  br label %18

12:                                               ; preds = %6, %6, %6, %6, %6, %6, %6, %6, %6, %6, %6, %6, %6
  br label %18

13:                                               ; preds = %6, %6, %6, %6, %6, %6, %6, %6, %6, %6, %6, %6, %6
  br label %18

14:                                               ; preds = %6
  %15 = load ptr, ptr %0, align 8
  %16 = getelementptr inbounds i8, ptr %15, i64 344
  %17 = load ptr, ptr %16, align 8
  tail call void (ptr, ptr, ptr, ptr, ptr, ...) %17(ptr noundef nonnull align 8 dereferenceable(1280) %0, ptr noundef nonnull align 8 dereferenceable(24) %4, ptr noundef nonnull @.str.302, ptr noundef nonnull @.str.5, ptr noundef nonnull @.str.5) #24
  br label %41

18:                                               ; preds = %6, %6, %6, %6, %6, %6, %6, %6, %6, %6, %6, %6, %6, %13, %12, %11, %10, %9, %8, %7
  %.0 = phi i32 [ 483, %13 ], [ 476, %12 ], [ 480, %11 ], [ 475, %10 ], [ 479, %9 ], [ 485, %8 ], [ 484, %7 ], [ 564, %6 ], [ 564, %6 ], [ 564, %6 ], [ 564, %6 ], [ 564, %6 ], [ 564, %6 ], [ 564, %6 ], [ 564, %6 ], [ 564, %6 ], [ 564, %6 ], [ 564, %6 ], [ 564, %6 ], [ 564, %6 ]
  %19 = getelementptr inbounds i8, ptr %0, i64 56
  %20 = load ptr, ptr %19, align 8
  %21 = load ptr, ptr %3, align 8
  %22 = load ptr, ptr %21, align 8
  %23 = tail call noundef nonnull align 8 dereferenceable(24) ptr %22(ptr noundef nonnull align 8 dereferenceable(32) %3) #24
  %24 = tail call noundef ptr @_ZN7glslang13TIntermediate12addUnaryMathENS_9TOperatorEPNS_12TIntermTypedERKNS_10TSourceLocE(ptr noundef nonnull align 8 dereferenceable(2024) %20, i32 noundef %.0, ptr noundef nonnull %3, ptr noundef nonnull align 8 dereferenceable(24) %23) #24
  %25 = icmp eq ptr %24, null
  br i1 %25, label %26, label %30

26:                                               ; preds = %18
  %27 = load ptr, ptr %0, align 8
  %28 = getelementptr inbounds i8, ptr %27, i64 344
  %29 = load ptr, ptr %28, align 8
  tail call void (ptr, ptr, ptr, ptr, ptr, ...) %29(ptr noundef nonnull align 8 dereferenceable(1280) %0, ptr noundef nonnull align 8 dereferenceable(24) %4, ptr noundef nonnull @.str.303, ptr noundef nonnull @.str.210, ptr noundef nonnull @.str.5) #24
  br label %41

30:                                               ; preds = %18
  br i1 %5, label %41, label %31

31:                                               ; preds = %30
  %.not = icmp eq ptr %24, %3
  br i1 %.not, label %38, label %32

32:                                               ; preds = %31
  %33 = load ptr, ptr %24, align 8
  %34 = getelementptr inbounds i8, ptr %33, i64 240
  %35 = load ptr, ptr %34, align 8
  %36 = tail call noundef nonnull align 8 dereferenceable(152) ptr %35(ptr noundef nonnull align 8 dereferenceable(184) %24) #24
  %37 = tail call noundef zeroext i1 @_ZNK7glslang5TTypeeqERKS0_(ptr noundef nonnull align 8 dereferenceable(152) %36, ptr noundef nonnull align 8 dereferenceable(152) %1)
  br i1 %37, label %41, label %38

38:                                               ; preds = %32, %31
  %39 = load ptr, ptr %19, align 8
  %40 = tail call noundef ptr @_ZN7glslang13TIntermediate20setAggregateOperatorEP11TIntermNodeNS_9TOperatorERKNS_5TTypeERKNS_10TSourceLocE(ptr noundef nonnull align 8 dereferenceable(2024) %39, ptr noundef nonnull %24, i32 noundef %2, ptr noundef nonnull align 8 dereferenceable(152) %1, ptr noundef nonnull align 8 dereferenceable(24) %4) #24
  br label %41

41:                                               ; preds = %30, %32, %38, %26, %14
  %.018 = phi ptr [ null, %14 ], [ null, %26 ], [ %40, %38 ], [ %24, %32 ], [ %24, %30 ]
  ret ptr %.018
}